; ModuleID = 'source-C-CXX/61/573.c'
source_filename = "source-C-CXX/61/573.c"
target datalayout = "e-m:e-p270:32:32-p271:32:32-p272:64:64-i64:64-f80:128-n8:16:32:64-S128"
target triple = "x86_64-pc-linux-gnu"

@.str = private unnamed_addr constant [3 x i8] c"%c\00", align 1

; Function Attrs: nofree nounwind sspstrong uwtable
define dso_local i32 @main() local_unnamed_addr #0 {
  %1 = tail call noalias align 16 dereferenceable_or_null(1000) i8* @malloc(i64 1000) #5
  %2 = tail call i32 (i8*, ...) @__isoc99_scanf(i8* getelementptr inbounds ([3 x i8], [3 x i8]* @.str, i64 0, i64 0), i8* %1)
  %3 = getelementptr inbounds i8, i8* %1, i64 1
  %4 = tail call i32 (i8*, ...) @__isoc99_scanf(i8* getelementptr inbounds ([3 x i8], [3 x i8]* @.str, i64 0, i64 0), i8* nonnull %3)
  %5 = icmp eq i32 %4, -1
  br i1 %5, label %35, label %6

6:                                                ; preds = %0, %29
  %7 = phi i64 [ %30, %29 ], [ 0, %0 ]
  %8 = phi i8* [ %32, %29 ], [ %3, %0 ]
  %9 = phi i8* [ %31, %29 ], [ %1, %0 ]
  %10 = load i8, i8* %9, align 1, !tbaa !5
  %11 = sext i8 %10 to i32
  %12 = tail call i32 @isspace(i32 %11) #6
  %13 = icmp eq i32 %12, 0
  br i1 %13, label %14, label %18

14:                                               ; preds = %6
  %15 = tail call i32 @putchar(i32 %11)
  %16 = load i8, i8* %9, align 1, !tbaa !5
  %17 = sext i8 %16 to i32
  br label %18

18:                                               ; preds = %14, %6
  %19 = phi i32 [ %17, %14 ], [ %11, %6 ]
  %20 = tail call i32 @isspace(i32 %19) #6
  %21 = icmp eq i32 %20, 0
  br i1 %21, label %29, label %22

22:                                               ; preds = %18
  %23 = load i8, i8* %8, align 1, !tbaa !5
  %24 = sext i8 %23 to i32
  %25 = tail call i32 @isspace(i32 %24) #6
  %26 = icmp eq i32 %25, 0
  br i1 %26, label %27, label %29

27:                                               ; preds = %22
  %28 = tail call i32 @putchar(i32 32)
  br label %29

29:                                               ; preds = %18, %22, %27
  %30 = add nuw i64 %7, 1
  %31 = getelementptr inbounds i8, i8* %1, i64 %30
  %32 = getelementptr inbounds i8, i8* %31, i64 1
  %33 = tail call i32 (i8*, ...) @__isoc99_scanf(i8* getelementptr inbounds ([3 x i8], [3 x i8]* @.str, i64 0, i64 0), i8* nonnull %32)
  %34 = icmp eq i32 %33, -1
  br i1 %34, label %35, label %6, !llvm.loop !8

35:                                               ; preds = %29, %0
  ret i32 0
}

; Function Attrs: inaccessiblememonly mustprogress nofree nounwind willreturn
declare noalias noundef align 16 i8* @malloc(i64 noundef) local_unnamed_addr #1

; Function Attrs: nofree nounwind
declare noundef i32 @__isoc99_scanf(i8* nocapture noundef readonly, ...) local_unnamed_addr #2

; Function Attrs: mustprogress nofree nounwind readonly willreturn
declare i32 @isspace(i32) local_unnamed_addr #3

; Function Attrs: nofree nounwind
declare noundef i32 @putchar(i32 noundef) local_unnamed_addr #4


!llvm.module.flags = !{!0, !1, !2, !3}
!llvm.ident = !{!4}

!0 = !{i32 1, !"wchar_size", i32 4}
!1 = !{i32 7, !"PIC Level", i32 2}
!2 = !{i32 7, !"PIE Level", i32 2}
!3 = !{i32 7, !"uwtable", i32 1}
!4 = !{!"clang version 13.0.0"}
!5 = !{!6, !6, i64 0}
!6 = !{!"omnipotent char", !7, i64 0}
!7 = !{!"Simple C/C++ TBAA"}
!8 = distinct !{!8, !9}
!9 = !{!"llvm.loop.mustprogress"}
